; Function Attrs: mustprogress nofree norecurse nosync nounwind willreturn memory(argmem: read) uwtable
define range(i32 0, 2) i32 @wolfSSL_is_init_finished(ptr noundef readonly captures(address_is_null) %0) local_unnamed_addr #9 {
  %2 = icmp eq ptr %0, null
  br i1 %2, label %7, label %3

3:                                                ; preds = %1
  %4 = getelementptr inbounds nuw i8, ptr %0, i64 1045
  %5 = load i8, ptr %4, align 1, !tbaa !147
  %6 = icmp eq i8 %5, 16
  %. = zext i1 %6 to i32
  br label %7

7:                                                ; preds = %3, %1
  %.0 = phi i32 [ 0, %1 ], [ %., %3 ]
  ret i32 %.0
}